ARM GAS  C:\Users\MALINA~1\AppData\Local\Temp\cc6rn7Bg.s 			page 1


   1              		.cpu cortex-m0
   2              		.fpu softvfp
   3              		.eabi_attribute 20, 1
   4              		.eabi_attribute 21, 1
   5              		.eabi_attribute 23, 3
   6              		.eabi_attribute 24, 1
   7              		.eabi_attribute 25, 1
   8              		.eabi_attribute 26, 1
   9              		.eabi_attribute 30, 6
  10              		.eabi_attribute 34, 0
  11              		.eabi_attribute 18, 4
  12              		.code	16
  13              		.file	"main.c"
  14              		.text
  15              	.Ltext0:
  16              		.cfi_sections	.debug_frame
  17              		.comm	line,128,4
  18              		.global	linesz
  19              		.bss
  20              		.type	linesz, %object
  21              		.size	linesz, 1
  22              	linesz:
  23 0000 00       		.space	1
  24              		.comm	motors,48,4
  25              		.section	.text.SerialCB,"ax",%progbits
  26              		.align	2
  27              		.global	SerialCB
  28              		.code	16
  29              		.thumb_func
  30              		.type	SerialCB, %function
  31              	SerialCB:
  32              	.LFB33:
  33              		.file 1 ".\\main.c"
   1:.\main.c      **** //Code wot does the stuff for the interface thing.
   2:.\main.c      **** #include <project.h>
   3:.\main.c      **** #include <stdlib.h>
   4:.\main.c      **** #include <stdio.h>
   5:.\main.c      **** uint8 line[128];
   6:.\main.c      **** uint8 linesz=0;
   7:.\main.c      **** int motors[12];
   8:.\main.c      **** void SetMotor(int motor, int value);
   9:.\main.c      **** void DisableAll();
  10:.\main.c      **** void ReallyDisableEverything(); //AKA 'Pause'
  11:.\main.c      **** void SerialCB()
  12:.\main.c      **** {
  34              		.loc 1 12 0
  35              		.cfi_startproc
  36 0000 80B5     		push	{r7, lr}
  37              		.cfi_def_cfa_offset 8
  38              		.cfi_offset 7, -8
  39              		.cfi_offset 14, -4
  40 0002 82B0     		sub	sp, sp, #8
  41              		.cfi_def_cfa_offset 16
  42 0004 00AF     		add	r7, sp, #0
  43              		.cfi_def_cfa_register 7
  13:.\main.c      ****     //This happens when PCComms interupt is called. Lego Batman.
  14:.\main.c      ****     uint8 c = PCComms_UartGetChar();
ARM GAS  C:\Users\MALINA~1\AppData\Local\Temp\cc6rn7Bg.s 			page 2


  44              		.loc 1 14 0
  45 0006 FFF7FEFF 		bl	PCComms_UartGetChar
  46 000a 021C     		mov	r2, r0
  47 000c FB1D     		add	r3, r7, #7
  48 000e 1A70     		strb	r2, [r3]
  15:.\main.c      ****     while(c!=0)
  49              		.loc 1 15 0
  50 0010 0EE0     		b	.L2
  51              	.L3:
  16:.\main.c      ****     {
  17:.\main.c      ****         line[linesz++]=c;
  52              		.loc 1 17 0
  53 0012 0C4B     		ldr	r3, .L4
  54 0014 1B78     		ldrb	r3, [r3]
  55 0016 5A1C     		add	r2, r3, #1
  56 0018 D1B2     		uxtb	r1, r2
  57 001a 0A4A     		ldr	r2, .L4
  58 001c 1170     		strb	r1, [r2]
  59 001e 0A4A     		ldr	r2, .L4+4
  60 0020 F91D     		add	r1, r7, #7
  61 0022 0978     		ldrb	r1, [r1]
  62 0024 D154     		strb	r1, [r2, r3]
  18:.\main.c      ****         c = PCComms_UartGetChar();
  63              		.loc 1 18 0
  64 0026 FFF7FEFF 		bl	PCComms_UartGetChar
  65 002a 021C     		mov	r2, r0
  66 002c FB1D     		add	r3, r7, #7
  67 002e 1A70     		strb	r2, [r3]
  68              	.L2:
  15:.\main.c      ****     while(c!=0)
  69              		.loc 1 15 0 discriminator 1
  70 0030 FB1D     		add	r3, r7, #7
  71 0032 1B78     		ldrb	r3, [r3]
  72 0034 002B     		cmp	r3, #0
  73 0036 ECD1     		bne	.L3
  19:.\main.c      ****     }
  20:.\main.c      ****     PCComms_ClearRxInterruptSource(0xffff);
  74              		.loc 1 20 0
  75 0038 044B     		ldr	r3, .L4+8
  76 003a 054A     		ldr	r2, .L4+12
  77 003c 1A60     		str	r2, [r3]
  21:.\main.c      **** }
  78              		.loc 1 21 0
  79 003e BD46     		mov	sp, r7
  80 0040 02B0     		add	sp, sp, #8
  81              		@ sp needed
  82 0042 80BD     		pop	{r7, pc}
  83              	.L5:
  84              		.align	2
  85              	.L4:
  86 0044 00000000 		.word	linesz
  87 0048 00000000 		.word	line
  88 004c C00F0640 		.word	1074139072
  89 0050 FFFF0000 		.word	65535
  90              		.cfi_endproc
  91              	.LFE33:
  92              		.size	SerialCB, .-SerialCB
ARM GAS  C:\Users\MALINA~1\AppData\Local\Temp\cc6rn7Bg.s 			page 3


  93              		.section	.rodata
  94              		.align	2
  95              	.LC5:
  96 0000 426F6F70 		.ascii	"Boop\000"
  96      00
  97              		.section	.text.main,"ax",%progbits
  98              		.align	2
  99              		.global	main
 100              		.code	16
 101              		.thumb_func
 102              		.type	main, %function
 103              	main:
 104              	.LFB34:
  22:.\main.c      **** void parseSerial(uint8 *data,uint8 datasz);
  23:.\main.c      **** int ScaleVal(int val);  //Scales a value to match our schema.
  24:.\main.c      **** int main()
  25:.\main.c      **** {
 105              		.loc 1 25 0
 106              		.cfi_startproc
 107 0000 80B5     		push	{r7, lr}
 108              		.cfi_def_cfa_offset 8
 109              		.cfi_offset 7, -8
 110              		.cfi_offset 14, -4
 111 0002 00AF     		add	r7, sp, #0
 112              		.cfi_def_cfa_register 7
  26:.\main.c      ****     PCComms_SetCustomInterruptHandler(&SerialCB);
 113              		.loc 1 26 0
 114 0004 1E4B     		ldr	r3, .L12
 115 0006 181C     		mov	r0, r3
 116 0008 FFF7FEFF 		bl	PCComms_SetCustomInterruptHandler
  27:.\main.c      ****     DisableAll();
 117              		.loc 1 27 0
 118 000c FFF7FEFF 		bl	DisableAll
  28:.\main.c      ****     PCComms_Start();
 119              		.loc 1 28 0
 120 0010 FFF7FEFF 		bl	PCComms_Start
  29:.\main.c      ****     MotorComms_Start();
 121              		.loc 1 29 0
 122 0014 FFF7FEFF 		bl	MotorComms_Start
  30:.\main.c      ****     Timer_1_Start();
 123              		.loc 1 30 0
 124 0018 FFF7FEFF 		bl	Timer_1_Start
  31:.\main.c      ****     CyGlobalIntEnable;
 125              		.loc 1 31 0
 126              	@ 31 ".\main.c" 1
 127 001c 62B6     		CPSIE   i
 128              	@ 0 "" 2
  32:.\main.c      ****     OpenExhaust_Write(1);
 129              		.loc 1 32 0
 130              		.code	16
 131 001e 0120     		mov	r0, #1
 132 0020 FFF7FEFF 		bl	OpenExhaust_Write
  33:.\main.c      ****     CloseExhaust_Write(1);
 133              		.loc 1 33 0
 134 0024 0120     		mov	r0, #1
 135 0026 FFF7FEFF 		bl	CloseExhaust_Write
 136              	.L11:
ARM GAS  C:\Users\MALINA~1\AppData\Local\Temp\cc6rn7Bg.s 			page 4


  34:.\main.c      ****     
  35:.\main.c      ****     for(;;)
  36:.\main.c      ****     {
  37:.\main.c      ****         CyDelay(10);
 137              		.loc 1 37 0
 138 002a 0A20     		mov	r0, #10
 139 002c FFF7FEFF 		bl	CyDelay
  38:.\main.c      ****         if(linesz !=0)
 140              		.loc 1 38 0
 141 0030 144B     		ldr	r3, .L12+4
 142 0032 1B78     		ldrb	r3, [r3]
 143 0034 002B     		cmp	r3, #0
 144 0036 1DD0     		beq	.L7
  39:.\main.c      ****         {
  40:.\main.c      ****             if(line[linesz-1]=='\n' || line[linesz-1]=='\r') //Assume that the computer isn't doing
 145              		.loc 1 40 0
 146 0038 124B     		ldr	r3, .L12+4
 147 003a 1B78     		ldrb	r3, [r3]
 148 003c 013B     		sub	r3, r3, #1
 149 003e 124A     		ldr	r2, .L12+8
 150 0040 D35C     		ldrb	r3, [r2, r3]
 151 0042 0A2B     		cmp	r3, #10
 152 0044 06D0     		beq	.L8
 153              		.loc 1 40 0 is_stmt 0 discriminator 1
 154 0046 0F4B     		ldr	r3, .L12+4
 155 0048 1B78     		ldrb	r3, [r3]
 156 004a 013B     		sub	r3, r3, #1
 157 004c 0E4A     		ldr	r2, .L12+8
 158 004e D35C     		ldrb	r3, [r2, r3]
 159 0050 0D2B     		cmp	r3, #13
 160 0052 14D1     		bne	.L10
 161              	.L8:
  41:.\main.c      ****             //Q. What is our computer's favorite dance?
  42:.\main.c      ****             //A. The Robot!
  43:.\main.c      ****             {
  44:.\main.c      ****                 parseSerial(line,linesz);
 162              		.loc 1 44 0 is_stmt 1
 163 0054 0B4B     		ldr	r3, .L12+4
 164 0056 1B78     		ldrb	r3, [r3]
 165 0058 0B4A     		ldr	r2, .L12+8
 166 005a 101C     		mov	r0, r2
 167 005c 191C     		mov	r1, r3
 168 005e FFF7FEFF 		bl	parseSerial
  45:.\main.c      ****                 line[linesz]='\0';
 169              		.loc 1 45 0
 170 0062 084B     		ldr	r3, .L12+4
 171 0064 1B78     		ldrb	r3, [r3]
 172 0066 084A     		ldr	r2, .L12+8
 173 0068 0021     		mov	r1, #0
 174 006a D154     		strb	r1, [r2, r3]
  46:.\main.c      ****                 linesz=0;                
 175              		.loc 1 46 0
 176 006c 054B     		ldr	r3, .L12+4
 177 006e 0022     		mov	r2, #0
 178 0070 1A70     		strb	r2, [r3]
  47:.\main.c      ****             } 
  48:.\main.c      ****         }
ARM GAS  C:\Users\MALINA~1\AppData\Local\Temp\cc6rn7Bg.s 			page 5


  49:.\main.c      ****         else
  50:.\main.c      ****        MotorComms_UartPutString("Boop");
  51:.\main.c      ****     }
 179              		.loc 1 51 0
 180 0072 DAE7     		b	.L11
 181              	.L7:
  50:.\main.c      ****        MotorComms_UartPutString("Boop");
 182              		.loc 1 50 0
 183 0074 054B     		ldr	r3, .L12+12
 184 0076 181C     		mov	r0, r3
 185 0078 FFF7FEFF 		bl	MotorComms_UartPutString
 186              		.loc 1 51 0
 187 007c D5E7     		b	.L11
 188              	.L10:
 189 007e D4E7     		b	.L11
 190              	.L13:
 191              		.align	2
 192              	.L12:
 193 0080 00000000 		.word	SerialCB
 194 0084 00000000 		.word	linesz
 195 0088 00000000 		.word	line
 196 008c 00000000 		.word	.LC5
 197              		.cfi_endproc
 198              	.LFE34:
 199              		.size	main, .-main
 200              		.section	.rodata
 201 0005 000000   		.align	2
 202              	.LC7:
 203 0008 2D00     		.ascii	"-\000"
 204 000a 0000     		.align	2
 205              	.LC9:
 206 000c 0000     		.ascii	"\000\000"
 207 000e 0000     		.align	2
 208              	.LC11:
 209 0010 594F5520 		.ascii	"YOU IDIOT! YOU'LL KILL SOMEONE!\015\012\000"
 209      4944494F 
 209      54212059 
 209      4F55274C 
 209      4C204B49 
 210 0032 0000     		.align	2
 211              	.LC13:
 212 0034 4F50454E 		.ascii	"OPENING CLAW\015\012\000"
 212      494E4720 
 212      434C4157 
 212      0D0A00
 213 0043 00       		.align	2
 214              	.LC15:
 215 0044 434C4F53 		.ascii	"CLOSING CLAW\015\012\000"
 215      494E4720 
 215      434C4157 
 215      0D0A00
 216 0053 00       		.align	2
 217              	.LC17:
 218 0054 52454420 		.ascii	"RED LIGHT\015\012\000"
 218      4C494748 
 218      540D0A00 
 219              		.align	2
ARM GAS  C:\Users\MALINA~1\AppData\Local\Temp\cc6rn7Bg.s 			page 6


 220              	.LC19:
 221 0060 47524545 		.ascii	"GREEN LIGHT\015\012\000"
 221      4E204C49 
 221      4748540D 
 221      0A00
 222 006e 0000     		.align	2
 223              	.LC21:
 224 0070 414D4245 		.ascii	"AMBER LIGHT\015\012\000"
 224      52204C49 
 224      4748540D 
 224      0A00
 225 007e 0000     		.align	2
 226              	.LC24:
 227 0080 4D6F746F 		.ascii	"Motor %d is set to speed %d\015\012\000"
 227      72202564 
 227      20697320 
 227      73657420 
 227      746F2073 
 228 009e 0000     		.align	2
 229              	.LC26:
 230 00a0 53657474 		.ascii	"Setting motor %d to speed %d\015\012\000"
 230      696E6720 
 230      6D6F746F 
 230      72202564 
 230      20746F20 
 231 00bf 00       		.align	2
 232              	.LC28:
 233 00c0 42616420 		.ascii	"Bad data. Got: motor:%d value:%d\015\012\000"
 233      64617461 
 233      2E20476F 
 233      743A206D 
 233      6F746F72 
 234              		.section	.text.parseSerial,"ax",%progbits
 235              		.align	2
 236              		.global	parseSerial
 237              		.code	16
 238              		.thumb_func
 239              		.type	parseSerial, %function
 240              	parseSerial:
 241              	.LFB35:
  52:.\main.c      **** }
  53:.\main.c      **** 
  54:.\main.c      **** void parseSerial(uint8 *data,uint8 datasz)
  55:.\main.c      **** {
 242              		.loc 1 55 0
 243              		.cfi_startproc
 244 0000 90B5     		push	{r4, r7, lr}
 245              		.cfi_def_cfa_offset 12
 246              		.cfi_offset 4, -12
 247              		.cfi_offset 7, -8
 248              		.cfi_offset 14, -4
 249 0002 CBB0     		sub	sp, sp, #300
 250              		.cfi_def_cfa_offset 312
 251 0004 02AF     		add	r7, sp, #8
 252              		.cfi_def_cfa 7, 304
 253 0006 7860     		str	r0, [r7, #4]
 254 0008 0A1C     		mov	r2, r1
ARM GAS  C:\Users\MALINA~1\AppData\Local\Temp\cc6rn7Bg.s 			page 7


 255 000a A44B     		ldr	r3, .L29
 256 000c 9020     		mov	r0, #144
 257 000e 4000     		lsl	r0, r0, #1
 258 0010 C019     		add	r0, r0, r7
 259 0012 C318     		add	r3, r0, r3
 260 0014 1A70     		strb	r2, [r3]
  56:.\main.c      ****   data[datasz]='\0';  //Make sure it's null terminated. Arnold would approve.
 261              		.loc 1 56 0
 262 0016 A14B     		ldr	r3, .L29
 263 0018 9021     		mov	r1, #144
 264 001a 4900     		lsl	r1, r1, #1
 265 001c C919     		add	r1, r1, r7
 266 001e CB18     		add	r3, r1, r3
 267 0020 1B78     		ldrb	r3, [r3]
 268 0022 7A68     		ldr	r2, [r7, #4]
 269 0024 D318     		add	r3, r2, r3
 270 0026 0022     		mov	r2, #0
 271 0028 1A70     		strb	r2, [r3]
  57:.\main.c      ****     char *itr;
  58:.\main.c      ****     char *name= strtok_r((char*)data,"-",&itr); //Motor is anything up to the first dash.
 272              		.loc 1 58 0
 273 002a 7968     		ldr	r1, [r7, #4]
 274 002c 9C4A     		ldr	r2, .L29+4
 275 002e 8624     		mov	r4, #134
 276 0030 6400     		lsl	r4, r4, #1
 277 0032 3B19     		add	r3, r7, r4
 278 0034 081C     		mov	r0, r1
 279 0036 111C     		mov	r1, r2
 280 0038 1A1C     		mov	r2, r3
 281 003a FFF7FEFF 		bl	strtok_r
 282 003e 031C     		mov	r3, r0
 283 0040 8E20     		mov	r0, #142
 284 0042 4000     		lsl	r0, r0, #1
 285 0044 C019     		add	r0, r0, r7
 286 0046 0360     		str	r3, [r0]
  59:.\main.c      ****     char *val= strtok_r(NULL,"\0",&itr); //Speed is anything after the first dash.
 287              		.loc 1 59 0
 288 0048 964A     		ldr	r2, .L29+8
 289 004a 8621     		mov	r1, #134
 290 004c 4900     		lsl	r1, r1, #1
 291 004e 7B18     		add	r3, r7, r1
 292 0050 0020     		mov	r0, #0
 293 0052 111C     		mov	r1, r2
 294 0054 1A1C     		mov	r2, r3
 295 0056 FFF7FEFF 		bl	strtok_r
 296 005a 031C     		mov	r3, r0
 297 005c 8C22     		mov	r2, #140
 298 005e 5200     		lsl	r2, r2, #1
 299 0060 D219     		add	r2, r2, r7
 300 0062 1360     		str	r3, [r2]
  60:.\main.c      ****     int value = atoi(val);
 301              		.loc 1 60 0
 302 0064 8C24     		mov	r4, #140
 303 0066 6400     		lsl	r4, r4, #1
 304 0068 E419     		add	r4, r4, r7
 305 006a 2368     		ldr	r3, [r4]
 306 006c 181C     		mov	r0, r3
ARM GAS  C:\Users\MALINA~1\AppData\Local\Temp\cc6rn7Bg.s 			page 8


 307 006e FFF7FEFF 		bl	atoi
 308 0072 031C     		mov	r3, r0
 309 0074 8A20     		mov	r0, #138
 310 0076 4000     		lsl	r0, r0, #1
 311 0078 C019     		add	r0, r0, r7
 312 007a 0360     		str	r3, [r0]
  61:.\main.c      ****     int motor= atoi(name);
 313              		.loc 1 61 0
 314 007c 8E21     		mov	r1, #142
 315 007e 4900     		lsl	r1, r1, #1
 316 0080 C919     		add	r1, r1, r7
 317 0082 0B68     		ldr	r3, [r1]
 318 0084 181C     		mov	r0, r3
 319 0086 FFF7FEFF 		bl	atoi
 320 008a 031C     		mov	r3, r0
 321 008c 8822     		mov	r2, #136
 322 008e 5200     		lsl	r2, r2, #1
 323 0090 D219     		add	r2, r2, r7
 324 0092 1360     		str	r3, [r2]
  62:.\main.c      ****     char buff[255];
  63:.\main.c      ****     if(motor==0&&value==0)//SHUT. DOWN. EVERYTHING..
 325              		.loc 1 63 0
 326 0094 8824     		mov	r4, #136
 327 0096 6400     		lsl	r4, r4, #1
 328 0098 E419     		add	r4, r4, r7
 329 009a 2368     		ldr	r3, [r4]
 330 009c 002B     		cmp	r3, #0
 331 009e 0CD1     		bne	.L15
 332              		.loc 1 63 0 is_stmt 0 discriminator 1
 333 00a0 8A20     		mov	r0, #138
 334 00a2 4000     		lsl	r0, r0, #1
 335 00a4 C019     		add	r0, r0, r7
 336 00a6 0368     		ldr	r3, [r0]
 337 00a8 002B     		cmp	r3, #0
 338 00aa 06D1     		bne	.L15
  64:.\main.c      ****     {
  65:.\main.c      ****         PCComms_UartPutString("YOU IDIOT! YOU'LL KILL SOMEONE!\r\n");
 339              		.loc 1 65 0 is_stmt 1
 340 00ac 7E4B     		ldr	r3, .L29+12
 341 00ae 181C     		mov	r0, r3
 342 00b0 FFF7FEFF 		bl	PCComms_UartPutString
  66:.\main.c      ****         ReallyDisableEverything();
 343              		.loc 1 66 0
 344 00b4 FFF7FEFF 		bl	ReallyDisableEverything
  67:.\main.c      ****         return;
 345              		.loc 1 67 0
 346 00b8 ECE0     		b	.L14
 347              	.L15:
  68:.\main.c      ****     }
  69:.\main.c      ****     if(motor==10) //THE CLAW!
 348              		.loc 1 69 0
 349 00ba 8821     		mov	r1, #136
 350 00bc 4900     		lsl	r1, r1, #1
 351 00be C919     		add	r1, r1, r7
 352 00c0 0B68     		ldr	r3, [r1]
 353 00c2 0A2B     		cmp	r3, #10
 354 00c4 2ED1     		bne	.L17
ARM GAS  C:\Users\MALINA~1\AppData\Local\Temp\cc6rn7Bg.s 			page 9


  70:.\main.c      ****     {
  71:.\main.c      ****         if(value==1) //OPEN
 355              		.loc 1 71 0
 356 00c6 8A22     		mov	r2, #138
 357 00c8 5200     		lsl	r2, r2, #1
 358 00ca D219     		add	r2, r2, r7
 359 00cc 1368     		ldr	r3, [r2]
 360 00ce 012B     		cmp	r3, #1
 361 00d0 10D1     		bne	.L18
  72:.\main.c      ****         {
  73:.\main.c      ****             PCComms_UartPutString("OPENING CLAW\r\n");
 362              		.loc 1 73 0
 363 00d2 764B     		ldr	r3, .L29+16
 364 00d4 181C     		mov	r0, r3
 365 00d6 FFF7FEFF 		bl	PCComms_UartPutString
  74:.\main.c      ****             CloseExhaust_Write(0);
 366              		.loc 1 74 0
 367 00da 0020     		mov	r0, #0
 368 00dc FFF7FEFF 		bl	CloseExhaust_Write
  75:.\main.c      ****             ClosePressure_Write(0);
 369              		.loc 1 75 0
 370 00e0 0020     		mov	r0, #0
 371 00e2 FFF7FEFF 		bl	ClosePressure_Write
  76:.\main.c      ****             OpenExhaust_Write(1);
 372              		.loc 1 76 0
 373 00e6 0120     		mov	r0, #1
 374 00e8 FFF7FEFF 		bl	OpenExhaust_Write
  77:.\main.c      ****             OpenExhaust_Write(1);
 375              		.loc 1 77 0
 376 00ec 0120     		mov	r0, #1
 377 00ee FFF7FEFF 		bl	OpenExhaust_Write
 378 00f2 16E0     		b	.L19
 379              	.L18:
  78:.\main.c      ****         }
  79:.\main.c      ****         else if(value==-1) //CLOSE
 380              		.loc 1 79 0
 381 00f4 8A24     		mov	r4, #138
 382 00f6 6400     		lsl	r4, r4, #1
 383 00f8 E419     		add	r4, r4, r7
 384 00fa 2368     		ldr	r3, [r4]
 385 00fc 0133     		add	r3, r3, #1
 386 00fe 10D1     		bne	.L19
  80:.\main.c      ****         {
  81:.\main.c      ****             PCComms_UartPutString("CLOSING CLAW\r\n");
 387              		.loc 1 81 0
 388 0100 6B4B     		ldr	r3, .L29+20
 389 0102 181C     		mov	r0, r3
 390 0104 FFF7FEFF 		bl	PCComms_UartPutString
  82:.\main.c      ****             CloseExhaust_Write(1);
 391              		.loc 1 82 0
 392 0108 0120     		mov	r0, #1
 393 010a FFF7FEFF 		bl	CloseExhaust_Write
  83:.\main.c      ****             ClosePressure_Write(1);
 394              		.loc 1 83 0
 395 010e 0120     		mov	r0, #1
 396 0110 FFF7FEFF 		bl	ClosePressure_Write
  84:.\main.c      ****             OpenExhaust_Write(0);
ARM GAS  C:\Users\MALINA~1\AppData\Local\Temp\cc6rn7Bg.s 			page 10


 397              		.loc 1 84 0
 398 0114 0020     		mov	r0, #0
 399 0116 FFF7FEFF 		bl	OpenExhaust_Write
  85:.\main.c      ****             OpenExhaust_Write(0);
 400              		.loc 1 85 0
 401 011a 0020     		mov	r0, #0
 402 011c FFF7FEFF 		bl	OpenExhaust_Write
  86:.\main.c      ****         }
  87:.\main.c      ****         return;   
 403              		.loc 1 87 0
 404 0120 B8E0     		b	.L14
 405              	.L19:
 406 0122 B7E0     		b	.L14
 407              	.L17:
  88:.\main.c      ****     }
  89:.\main.c      ****     if(motor ==11 || motor ==12 || motor ==13)//Red or Green light
 408              		.loc 1 89 0
 409 0124 8820     		mov	r0, #136
 410 0126 4000     		lsl	r0, r0, #1
 411 0128 C019     		add	r0, r0, r7
 412 012a 0368     		ldr	r3, [r0]
 413 012c 0B2B     		cmp	r3, #11
 414 012e 0BD0     		beq	.L20
 415              		.loc 1 89 0 is_stmt 0 discriminator 1
 416 0130 8821     		mov	r1, #136
 417 0132 4900     		lsl	r1, r1, #1
 418 0134 C919     		add	r1, r1, r7
 419 0136 0B68     		ldr	r3, [r1]
 420 0138 0C2B     		cmp	r3, #12
 421 013a 05D0     		beq	.L20
 422 013c 8822     		mov	r2, #136
 423 013e 5200     		lsl	r2, r2, #1
 424 0140 D219     		add	r2, r2, r7
 425 0142 1368     		ldr	r3, [r2]
 426 0144 0D2B     		cmp	r3, #13
 427 0146 33D1     		bne	.L21
 428              	.L20:
  90:.\main.c      ****     {
  91:.\main.c      ****         if(motor==11)
 429              		.loc 1 91 0 is_stmt 1
 430 0148 8824     		mov	r4, #136
 431 014a 6400     		lsl	r4, r4, #1
 432 014c E419     		add	r4, r4, r7
 433 014e 2368     		ldr	r3, [r4]
 434 0150 0B2B     		cmp	r3, #11
 435 0152 0CD1     		bne	.L22
  92:.\main.c      ****         {
  93:.\main.c      ****             PCComms_UartPutString("RED LIGHT\r\n");
 436              		.loc 1 93 0
 437 0154 574B     		ldr	r3, .L29+24
 438 0156 181C     		mov	r0, r3
 439 0158 FFF7FEFF 		bl	PCComms_UartPutString
  94:.\main.c      ****             Red_Write(value);
 440              		.loc 1 94 0
 441 015c 8A20     		mov	r0, #138
 442 015e 4000     		lsl	r0, r0, #1
 443 0160 C019     		add	r0, r0, r7
ARM GAS  C:\Users\MALINA~1\AppData\Local\Temp\cc6rn7Bg.s 			page 11


 444 0162 0368     		ldr	r3, [r0]
 445 0164 DBB2     		uxtb	r3, r3
 446 0166 181C     		mov	r0, r3
 447 0168 FFF7FEFF 		bl	Red_Write
 448 016c 1FE0     		b	.L23
 449              	.L22:
  95:.\main.c      ****         }
  96:.\main.c      ****         else if(motor==12)
 450              		.loc 1 96 0
 451 016e 8821     		mov	r1, #136
 452 0170 4900     		lsl	r1, r1, #1
 453 0172 C919     		add	r1, r1, r7
 454 0174 0B68     		ldr	r3, [r1]
 455 0176 0C2B     		cmp	r3, #12
 456 0178 0CD1     		bne	.L24
  97:.\main.c      ****         {
  98:.\main.c      ****             PCComms_UartPutString("GREEN LIGHT\r\n");
 457              		.loc 1 98 0
 458 017a 4F4B     		ldr	r3, .L29+28
 459 017c 181C     		mov	r0, r3
 460 017e FFF7FEFF 		bl	PCComms_UartPutString
  99:.\main.c      ****             Green_Write(value);
 461              		.loc 1 99 0
 462 0182 8A22     		mov	r2, #138
 463 0184 5200     		lsl	r2, r2, #1
 464 0186 D219     		add	r2, r2, r7
 465 0188 1368     		ldr	r3, [r2]
 466 018a DBB2     		uxtb	r3, r3
 467 018c 181C     		mov	r0, r3
 468 018e FFF7FEFF 		bl	Green_Write
 469 0192 0CE0     		b	.L23
 470              	.L24:
 100:.\main.c      ****         }
 101:.\main.c      ****         else
 102:.\main.c      ****         {
 103:.\main.c      ****             PCComms_UartPutString("AMBER LIGHT\r\n");
 471              		.loc 1 103 0
 472 0194 494B     		ldr	r3, .L29+32
 473 0196 181C     		mov	r0, r3
 474 0198 FFF7FEFF 		bl	PCComms_UartPutString
 104:.\main.c      ****             Pause_Register_Write(value);
 475              		.loc 1 104 0
 476 019c 8A24     		mov	r4, #138
 477 019e 6400     		lsl	r4, r4, #1
 478 01a0 E419     		add	r4, r4, r7
 479 01a2 2368     		ldr	r3, [r4]
 480 01a4 DBB2     		uxtb	r3, r3
 481 01a6 181C     		mov	r0, r3
 482 01a8 FFF7FEFF 		bl	Pause_Register_Write
 105:.\main.c      ****         }
 106:.\main.c      ****         return;
 483              		.loc 1 106 0
 484 01ac 72E0     		b	.L14
 485              	.L23:
 486 01ae 71E0     		b	.L14
 487              	.L21:
 107:.\main.c      ****     }
ARM GAS  C:\Users\MALINA~1\AppData\Local\Temp\cc6rn7Bg.s 			page 12


 108:.\main.c      ****     if(value==255)
 488              		.loc 1 108 0
 489 01b0 8A20     		mov	r0, #138
 490 01b2 4000     		lsl	r0, r0, #1
 491 01b4 C019     		add	r0, r0, r7
 492 01b6 0368     		ldr	r3, [r0]
 493 01b8 FF2B     		cmp	r3, #255
 494 01ba 18D1     		bne	.L25
 109:.\main.c      ****     {
 110:.\main.c      ****       snprintf(buff,255,"Motor %d is set to speed %d\r\n",motor,motors[motor]);
 495              		.loc 1 110 0
 496 01bc 404B     		ldr	r3, .L29+36
 497 01be 8821     		mov	r1, #136
 498 01c0 4900     		lsl	r1, r1, #1
 499 01c2 C919     		add	r1, r1, r7
 500 01c4 0A68     		ldr	r2, [r1]
 501 01c6 9200     		lsl	r2, r2, #2
 502 01c8 D058     		ldr	r0, [r2, r3]
 503 01ca 391C     		mov	r1, r7
 504 01cc 0C31     		add	r1, r1, #12
 505 01ce 3D4A     		ldr	r2, .L29+40
 506 01d0 8824     		mov	r4, #136
 507 01d2 6400     		lsl	r4, r4, #1
 508 01d4 E419     		add	r4, r4, r7
 509 01d6 2368     		ldr	r3, [r4]
 510 01d8 0090     		str	r0, [sp]
 511 01da 081C     		mov	r0, r1
 512 01dc FF21     		mov	r1, #255
 513 01de FFF7FEFF 		bl	snprintf
 111:.\main.c      ****       PCComms_UartPutString(buff);
 514              		.loc 1 111 0
 515 01e2 3B1C     		mov	r3, r7
 516 01e4 0C33     		add	r3, r3, #12
 517 01e6 181C     		mov	r0, r3
 518 01e8 FFF7FEFF 		bl	PCComms_UartPutString
 519 01ec 52E0     		b	.L14
 520              	.L25:
 112:.\main.c      ****     }
 113:.\main.c      ****     else if(value<64&&value>-64) //If it's an acceptable value
 521              		.loc 1 113 0
 522 01ee 8A20     		mov	r0, #138
 523 01f0 4000     		lsl	r0, r0, #1
 524 01f2 C019     		add	r0, r0, r7
 525 01f4 0368     		ldr	r3, [r0]
 526 01f6 3F2B     		cmp	r3, #63
 527 01f8 37DC     		bgt	.L27
 528              		.loc 1 113 0 is_stmt 0 discriminator 1
 529 01fa 8A21     		mov	r1, #138
 530 01fc 4900     		lsl	r1, r1, #1
 531 01fe C919     		add	r1, r1, r7
 532 0200 0B68     		ldr	r3, [r1]
 533 0202 1A1C     		mov	r2, r3
 534 0204 3F32     		add	r2, r2, #63
 535 0206 30DB     		blt	.L27
 114:.\main.c      ****     {      
 115:.\main.c      ****       motors[motor]=value;
 536              		.loc 1 115 0 is_stmt 1
ARM GAS  C:\Users\MALINA~1\AppData\Local\Temp\cc6rn7Bg.s 			page 13


 537 0208 2D4B     		ldr	r3, .L29+36
 538 020a 8824     		mov	r4, #136
 539 020c 6400     		lsl	r4, r4, #1
 540 020e E419     		add	r4, r4, r7
 541 0210 2268     		ldr	r2, [r4]
 542 0212 9200     		lsl	r2, r2, #2
 543 0214 8A20     		mov	r0, #138
 544 0216 4000     		lsl	r0, r0, #1
 545 0218 C019     		add	r0, r0, r7
 546 021a 0168     		ldr	r1, [r0]
 547 021c D150     		str	r1, [r2, r3]
 116:.\main.c      ****       SetMotor(motor,ScaleVal(value));
 548              		.loc 1 116 0
 549 021e 8A21     		mov	r1, #138
 550 0220 4900     		lsl	r1, r1, #1
 551 0222 C919     		add	r1, r1, r7
 552 0224 0B68     		ldr	r3, [r1]
 553 0226 181C     		mov	r0, r3
 554 0228 FFF7FEFF 		bl	ScaleVal
 555 022c 031C     		mov	r3, r0
 556 022e 8824     		mov	r4, #136
 557 0230 6400     		lsl	r4, r4, #1
 558 0232 E419     		add	r4, r4, r7
 559 0234 2268     		ldr	r2, [r4]
 560 0236 101C     		mov	r0, r2
 561 0238 191C     		mov	r1, r3
 562 023a FFF7FEFF 		bl	SetMotor
 117:.\main.c      ****       snprintf(buff,255,"Setting motor %d to speed %d\r\n",motor,value);
 563              		.loc 1 117 0
 564 023e 391C     		mov	r1, r7
 565 0240 0C31     		add	r1, r1, #12
 566 0242 214A     		ldr	r2, .L29+44
 567 0244 8820     		mov	r0, #136
 568 0246 4000     		lsl	r0, r0, #1
 569 0248 C019     		add	r0, r0, r7
 570 024a 0368     		ldr	r3, [r0]
 571 024c 8A24     		mov	r4, #138
 572 024e 6400     		lsl	r4, r4, #1
 573 0250 E419     		add	r4, r4, r7
 574 0252 2068     		ldr	r0, [r4]
 575 0254 0090     		str	r0, [sp]
 576 0256 081C     		mov	r0, r1
 577 0258 FF21     		mov	r1, #255
 578 025a FFF7FEFF 		bl	snprintf
 118:.\main.c      ****       PCComms_UartPutString(buff);
 579              		.loc 1 118 0
 580 025e 3B1C     		mov	r3, r7
 581 0260 0C33     		add	r3, r3, #12
 582 0262 181C     		mov	r0, r3
 583 0264 FFF7FEFF 		bl	PCComms_UartPutString
 584 0268 14E0     		b	.L14
 585              	.L27:
 119:.\main.c      ****     }
 120:.\main.c      ****     else
 121:.\main.c      ****     {
 122:.\main.c      ****        snprintf(buff,255,"Bad data. Got: motor:%d value:%d\r\n",motor,value);
 586              		.loc 1 122 0
ARM GAS  C:\Users\MALINA~1\AppData\Local\Temp\cc6rn7Bg.s 			page 14


 587 026a 391C     		mov	r1, r7
 588 026c 0C31     		add	r1, r1, #12
 589 026e 174A     		ldr	r2, .L29+48
 590 0270 8820     		mov	r0, #136
 591 0272 4000     		lsl	r0, r0, #1
 592 0274 C019     		add	r0, r0, r7
 593 0276 0368     		ldr	r3, [r0]
 594 0278 8A24     		mov	r4, #138
 595 027a 6400     		lsl	r4, r4, #1
 596 027c E419     		add	r4, r4, r7
 597 027e 2068     		ldr	r0, [r4]
 598 0280 0090     		str	r0, [sp]
 599 0282 081C     		mov	r0, r1
 600 0284 FF21     		mov	r1, #255
 601 0286 FFF7FEFF 		bl	snprintf
 123:.\main.c      ****        PCComms_UartPutString(buff);
 602              		.loc 1 123 0
 603 028a 3B1C     		mov	r3, r7
 604 028c 0C33     		add	r3, r3, #12
 605 028e 181C     		mov	r0, r3
 606 0290 FFF7FEFF 		bl	PCComms_UartPutString
 607              	.L14:
 124:.\main.c      ****     }
 125:.\main.c      **** }
 608              		.loc 1 125 0
 609 0294 BD46     		mov	sp, r7
 610 0296 49B0     		add	sp, sp, #292
 611              		@ sp needed
 612 0298 90BD     		pop	{r4, r7, pc}
 613              	.L30:
 614 029a C046     		.align	2
 615              	.L29:
 616 029c E3FEFFFF 		.word	-285
 617 02a0 08000000 		.word	.LC7
 618 02a4 0C000000 		.word	.LC9
 619 02a8 10000000 		.word	.LC11
 620 02ac 34000000 		.word	.LC13
 621 02b0 44000000 		.word	.LC15
 622 02b4 54000000 		.word	.LC17
 623 02b8 60000000 		.word	.LC19
 624 02bc 70000000 		.word	.LC21
 625 02c0 00000000 		.word	motors
 626 02c4 80000000 		.word	.LC24
 627 02c8 A0000000 		.word	.LC26
 628 02cc C0000000 		.word	.LC28
 629              		.cfi_endproc
 630              	.LFE35:
 631              		.size	parseSerial, .-parseSerial
 632              		.section	.text.DisableAll,"ax",%progbits
 633              		.align	2
 634              		.global	DisableAll
 635              		.code	16
 636              		.thumb_func
 637              		.type	DisableAll, %function
 638              	DisableAll:
 639              	.LFB36:
 126:.\main.c      **** 
ARM GAS  C:\Users\MALINA~1\AppData\Local\Temp\cc6rn7Bg.s 			page 15


 127:.\main.c      **** void DisableAll()   //This is the function which cripples all the EN pins. Reminds me of a fire at 
 128:.\main.c      **** {
 640              		.loc 1 128 0
 641              		.cfi_startproc
 642 0000 80B5     		push	{r7, lr}
 643              		.cfi_def_cfa_offset 8
 644              		.cfi_offset 7, -8
 645              		.cfi_offset 14, -4
 646 0002 00AF     		add	r7, sp, #0
 647              		.cfi_def_cfa_register 7
 129:.\main.c      ****     MotorControl1EN_Write(0);
 648              		.loc 1 129 0
 649 0004 0020     		mov	r0, #0
 650 0006 FFF7FEFF 		bl	MotorControl1EN_Write
 130:.\main.c      ****     MotorControl2EN_Write(0);
 651              		.loc 1 130 0
 652 000a 0020     		mov	r0, #0
 653 000c FFF7FEFF 		bl	MotorControl2EN_Write
 131:.\main.c      ****     MotorControl3EN_Write(0);
 654              		.loc 1 131 0
 655 0010 0020     		mov	r0, #0
 656 0012 FFF7FEFF 		bl	MotorControl3EN_Write
 132:.\main.c      ****     MotorControl4EN_Write(0);
 657              		.loc 1 132 0
 658 0016 0020     		mov	r0, #0
 659 0018 FFF7FEFF 		bl	MotorControl4EN_Write
 133:.\main.c      ****     MotorControl5EN_Write(0);
 660              		.loc 1 133 0
 661 001c 0020     		mov	r0, #0
 662 001e FFF7FEFF 		bl	MotorControl5EN_Write
 134:.\main.c      ****     FPGA_EN_Write(0);
 663              		.loc 1 134 0
 664 0022 0020     		mov	r0, #0
 665 0024 FFF7FEFF 		bl	FPGA_EN_Write
 135:.\main.c      **** }
 666              		.loc 1 135 0
 667 0028 BD46     		mov	sp, r7
 668              		@ sp needed
 669 002a 80BD     		pop	{r7, pc}
 670              		.cfi_endproc
 671              	.LFE36:
 672              		.size	DisableAll, .-DisableAll
 673              		.section	.rodata
 674 00e3 00       		.align	2
 675              	.LC30:
 676 00e4 53657474 		.ascii	"Setting motor %d to %d\015\012\000"
 676      696E6720 
 676      6D6F746F 
 676      72202564 
 676      20746F20 
 677              		.section	.text.SetMotor,"ax",%progbits
 678              		.align	2
 679              		.global	SetMotor
 680              		.code	16
 681              		.thumb_func
 682              		.type	SetMotor, %function
 683              	SetMotor:
ARM GAS  C:\Users\MALINA~1\AppData\Local\Temp\cc6rn7Bg.s 			page 16


 684              	.LFB37:
 136:.\main.c      **** 
 137:.\main.c      **** void SetMotor(int motor, int value) //Sets the speed on the motors. TODO: Remove 'Kill All Humans' 
 138:.\main.c      **** {
 685              		.loc 1 138 0
 686              		.cfi_startproc
 687 0000 80B5     		push	{r7, lr}
 688              		.cfi_def_cfa_offset 8
 689              		.cfi_offset 7, -8
 690              		.cfi_offset 14, -4
 691 0002 C4B0     		sub	sp, sp, #272
 692              		.cfi_def_cfa_offset 280
 693 0004 02AF     		add	r7, sp, #8
 694              		.cfi_def_cfa 7, 272
 695 0006 7860     		str	r0, [r7, #4]
 696 0008 3960     		str	r1, [r7]
 139:.\main.c      ****     char buff[255];
 140:.\main.c      ****     snprintf(buff,255,"Setting motor %d to %d\r\n",motor,value);
 697              		.loc 1 140 0
 698 000a 391C     		mov	r1, r7
 699 000c 0831     		add	r1, r1, #8
 700 000e 2C4A     		ldr	r2, .L40
 701 0010 7B68     		ldr	r3, [r7, #4]
 702 0012 3868     		ldr	r0, [r7]
 703 0014 0090     		str	r0, [sp]
 704 0016 081C     		mov	r0, r1
 705 0018 FF21     		mov	r1, #255
 706 001a FFF7FEFF 		bl	snprintf
 141:.\main.c      ****     PCComms_UartPutString(buff);
 707              		.loc 1 141 0
 708 001e 3B1C     		mov	r3, r7
 709 0020 0833     		add	r3, r3, #8
 710 0022 181C     		mov	r0, r3
 711 0024 FFF7FEFF 		bl	PCComms_UartPutString
 142:.\main.c      ****     switch(motor)
 712              		.loc 1 142 0
 713 0028 7B68     		ldr	r3, [r7, #4]
 714 002a 052B     		cmp	r3, #5
 715 002c 45D8     		bhi	.L32
 716 002e 7B68     		ldr	r3, [r7, #4]
 717 0030 9A00     		lsl	r2, r3, #2
 718 0032 244B     		ldr	r3, .L40+4
 719 0034 D318     		add	r3, r2, r3
 720 0036 1B68     		ldr	r3, [r3]
 721 0038 9F46     		mov	pc, r3
 722              		.section	.rodata
 723 00fd 000000   		.align	2
 724              	.L35:
 725 0100 BA000000 		.word	.L32
 726 0104 3A000000 		.word	.L34
 727 0108 56000000 		.word	.L36
 728 010c 72000000 		.word	.L37
 729 0110 8E000000 		.word	.L38
 730 0114 AA000000 		.word	.L39
 731              		.section	.text.SetMotor
 732              	.L34:
 143:.\main.c      ****     {
ARM GAS  C:\Users\MALINA~1\AppData\Local\Temp\cc6rn7Bg.s 			page 17


 144:.\main.c      ****         case 1: //Drive front right, MC2-2 (Sabertooth 11)
 145:.\main.c      ****             DisableAll();
 733              		.loc 1 145 0
 734 003a FFF7FEFF 		bl	DisableAll
 146:.\main.c      ****             MotorControl1EN_Write(1);
 735              		.loc 1 146 0
 736 003e 0120     		mov	r0, #1
 737 0040 FFF7FEFF 		bl	MotorControl1EN_Write
 147:.\main.c      ****             CyDelay(10);
 738              		.loc 1 147 0
 739 0044 0A20     		mov	r0, #10
 740 0046 FFF7FEFF 		bl	CyDelay
 148:.\main.c      ****             MotorComms_UartPutChar(value+127);
 741              		.loc 1 148 0
 742 004a 3B68     		ldr	r3, [r7]
 743 004c 7F33     		add	r3, r3, #127
 744 004e 181C     		mov	r0, r3
 745 0050 FFF7FEFF 		bl	MotorComms_SpiUartWriteTxData
 149:.\main.c      ****         break;
 746              		.loc 1 149 0
 747 0054 31E0     		b	.L32
 748              	.L36:
 150:.\main.c      ****         case 2: //Drive rear X, MC2-2 (Sabertooth 13)
 151:.\main.c      ****             DisableAll();
 749              		.loc 1 151 0
 750 0056 FFF7FEFF 		bl	DisableAll
 152:.\main.c      ****             MotorControl2EN_Write(1);
 751              		.loc 1 152 0
 752 005a 0120     		mov	r0, #1
 753 005c FFF7FEFF 		bl	MotorControl2EN_Write
 153:.\main.c      ****             CyDelay(10);
 754              		.loc 1 153 0
 755 0060 0A20     		mov	r0, #10
 756 0062 FFF7FEFF 		bl	CyDelay
 154:.\main.c      ****             MotorComms_UartPutChar(value+127);
 757              		.loc 1 154 0
 758 0066 3B68     		ldr	r3, [r7]
 759 0068 7F33     		add	r3, r3, #127
 760 006a 181C     		mov	r0, r3
 761 006c FFF7FEFF 		bl	MotorComms_SpiUartWriteTxData
 155:.\main.c      ****         break;
 762              		.loc 1 155 0
 763 0070 23E0     		b	.L32
 764              	.L37:
 156:.\main.c      ****         case 3: //Drive front left, MC3-2 (Sabertooth 12)
 157:.\main.c      ****             DisableAll();
 765              		.loc 1 157 0
 766 0072 FFF7FEFF 		bl	DisableAll
 158:.\main.c      ****             MotorControl3EN_Write(1);
 767              		.loc 1 158 0
 768 0076 0120     		mov	r0, #1
 769 0078 FFF7FEFF 		bl	MotorControl3EN_Write
 159:.\main.c      ****             CyDelay(10);
 770              		.loc 1 159 0
 771 007c 0A20     		mov	r0, #10
 772 007e FFF7FEFF 		bl	CyDelay
 160:.\main.c      ****             MotorComms_UartPutChar(value+127);
ARM GAS  C:\Users\MALINA~1\AppData\Local\Temp\cc6rn7Bg.s 			page 18


 773              		.loc 1 160 0
 774 0082 3B68     		ldr	r3, [r7]
 775 0084 7F33     		add	r3, r3, #127
 776 0086 181C     		mov	r0, r3
 777 0088 FFF7FEFF 		bl	MotorComms_SpiUartWriteTxData
 161:.\main.c      ****         break;
 778              		.loc 1 161 0
 779 008c 15E0     		b	.L32
 780              	.L38:
 162:.\main.c      ****         case 4: //Drive rear X, MC4-2 (Sabertooth 14)
 163:.\main.c      ****             DisableAll();
 781              		.loc 1 163 0
 782 008e FFF7FEFF 		bl	DisableAll
 164:.\main.c      ****             MotorControl4EN_Write(1);
 783              		.loc 1 164 0
 784 0092 0120     		mov	r0, #1
 785 0094 FFF7FEFF 		bl	MotorControl4EN_Write
 165:.\main.c      ****             CyDelay(10);
 786              		.loc 1 165 0
 787 0098 0A20     		mov	r0, #10
 788 009a FFF7FEFF 		bl	CyDelay
 166:.\main.c      ****             MotorComms_UartPutChar(value+127);
 789              		.loc 1 166 0
 790 009e 3B68     		ldr	r3, [r7]
 791 00a0 7F33     		add	r3, r3, #127
 792 00a2 181C     		mov	r0, r3
 793 00a4 FFF7FEFF 		bl	MotorComms_SpiUartWriteTxData
 167:.\main.c      ****         break;
 794              		.loc 1 167 0
 795 00a8 07E0     		b	.L32
 796              	.L39:
 168:.\main.c      ****         case 5: //Steering state control
 169:.\main.c      ****             DisableAll();
 797              		.loc 1 169 0
 798 00aa FFF7FEFF 		bl	DisableAll
 170:.\main.c      ****             Steering_Register_Write(value);
 799              		.loc 1 170 0
 800 00ae 3B68     		ldr	r3, [r7]
 801 00b0 DBB2     		uxtb	r3, r3
 802 00b2 181C     		mov	r0, r3
 803 00b4 FFF7FEFF 		bl	Steering_Register_Write
 171:.\main.c      ****         break;
 804              		.loc 1 171 0
 805 00b8 C046     		mov	r8, r8
 806              	.L32:
 172:.\main.c      ****     }
 173:.\main.c      **** }
 807              		.loc 1 173 0
 808 00ba BD46     		mov	sp, r7
 809 00bc 42B0     		add	sp, sp, #264
 810              		@ sp needed
 811 00be 80BD     		pop	{r7, pc}
 812              	.L41:
 813              		.align	2
 814              	.L40:
 815 00c0 E4000000 		.word	.LC30
 816 00c4 00010000 		.word	.L35
ARM GAS  C:\Users\MALINA~1\AppData\Local\Temp\cc6rn7Bg.s 			page 19


 817              		.cfi_endproc
 818              	.LFE37:
 819              		.size	SetMotor, .-SetMotor
 820              		.section	.text.ScaleVal,"ax",%progbits
 821              		.align	2
 822              		.global	ScaleVal
 823              		.code	16
 824              		.thumb_func
 825              		.type	ScaleVal, %function
 826              	ScaleVal:
 827              	.LFB38:
 174:.\main.c      **** int ScaleVal(int val)
 175:.\main.c      **** {
 828              		.loc 1 175 0
 829              		.cfi_startproc
 830 0000 80B5     		push	{r7, lr}
 831              		.cfi_def_cfa_offset 8
 832              		.cfi_offset 7, -8
 833              		.cfi_offset 14, -4
 834 0002 82B0     		sub	sp, sp, #8
 835              		.cfi_def_cfa_offset 16
 836 0004 00AF     		add	r7, sp, #0
 837              		.cfi_def_cfa_register 7
 838 0006 7860     		str	r0, [r7, #4]
 176:.\main.c      ****   if(val>=64) val=63;
 839              		.loc 1 176 0
 840 0008 7B68     		ldr	r3, [r7, #4]
 841 000a 3F2B     		cmp	r3, #63
 842 000c 01DD     		ble	.L43
 843              		.loc 1 176 0 is_stmt 0 discriminator 1
 844 000e 3F23     		mov	r3, #63
 845 0010 7B60     		str	r3, [r7, #4]
 846              	.L43:
 177:.\main.c      ****   if(val<=-64) val=-63;
 847              		.loc 1 177 0 is_stmt 1
 848 0012 7B68     		ldr	r3, [r7, #4]
 849 0014 1A1C     		mov	r2, r3
 850 0016 3F32     		add	r2, r2, #63
 851 0018 02DA     		bge	.L44
 852              		.loc 1 177 0 is_stmt 0 discriminator 1
 853 001a 3F23     		mov	r3, #63
 854 001c 5B42     		neg	r3, r3
 855 001e 7B60     		str	r3, [r7, #4]
 856              	.L44:
 178:.\main.c      ****   return val+64;
 857              		.loc 1 178 0 is_stmt 1
 858 0020 7B68     		ldr	r3, [r7, #4]
 859 0022 4033     		add	r3, r3, #64
 179:.\main.c      **** }
 860              		.loc 1 179 0
 861 0024 181C     		mov	r0, r3
 862 0026 BD46     		mov	sp, r7
 863 0028 02B0     		add	sp, sp, #8
 864              		@ sp needed
 865 002a 80BD     		pop	{r7, pc}
 866              		.cfi_endproc
 867              	.LFE38:
ARM GAS  C:\Users\MALINA~1\AppData\Local\Temp\cc6rn7Bg.s 			page 20


 868              		.size	ScaleVal, .-ScaleVal
 869              		.section	.text.ReallyDisableEverything,"ax",%progbits
 870              		.align	2
 871              		.global	ReallyDisableEverything
 872              		.code	16
 873              		.thumb_func
 874              		.type	ReallyDisableEverything, %function
 875              	ReallyDisableEverything:
 876              	.LFB39:
 180:.\main.c      **** void ReallyDisableEverything() //For the pause mode.
 181:.\main.c      **** {
 877              		.loc 1 181 0
 878              		.cfi_startproc
 879 0000 80B5     		push	{r7, lr}
 880              		.cfi_def_cfa_offset 8
 881              		.cfi_offset 7, -8
 882              		.cfi_offset 14, -4
 883 0002 00AF     		add	r7, sp, #0
 884              		.cfi_def_cfa_register 7
 182:.\main.c      ****     DisableAll();
 885              		.loc 1 182 0
 886 0004 FFF7FEFF 		bl	DisableAll
 183:.\main.c      ****     
 184:.\main.c      ****     MotorControl1EN_Write(1);
 887              		.loc 1 184 0
 888 0008 0120     		mov	r0, #1
 889 000a FFF7FEFF 		bl	MotorControl1EN_Write
 185:.\main.c      ****     CyDelay(10);
 890              		.loc 1 185 0
 891 000e 0A20     		mov	r0, #10
 892 0010 FFF7FEFF 		bl	CyDelay
 186:.\main.c      ****     MotorComms_UartPutChar(0);
 893              		.loc 1 186 0
 894 0014 0020     		mov	r0, #0
 895 0016 FFF7FEFF 		bl	MotorComms_SpiUartWriteTxData
 187:.\main.c      ****     MotorControl1EN_Write(0);
 896              		.loc 1 187 0
 897 001a 0020     		mov	r0, #0
 898 001c FFF7FEFF 		bl	MotorControl1EN_Write
 188:.\main.c      ****     
 189:.\main.c      ****     MotorControl2EN_Write(1);
 899              		.loc 1 189 0
 900 0020 0120     		mov	r0, #1
 901 0022 FFF7FEFF 		bl	MotorControl2EN_Write
 190:.\main.c      ****     CyDelay(10);    
 902              		.loc 1 190 0
 903 0026 0A20     		mov	r0, #10
 904 0028 FFF7FEFF 		bl	CyDelay
 191:.\main.c      ****     MotorComms_UartPutChar(0);
 905              		.loc 1 191 0
 906 002c 0020     		mov	r0, #0
 907 002e FFF7FEFF 		bl	MotorComms_SpiUartWriteTxData
 192:.\main.c      ****     MotorControl2EN_Write(0);
 908              		.loc 1 192 0
 909 0032 0020     		mov	r0, #0
 910 0034 FFF7FEFF 		bl	MotorControl2EN_Write
 193:.\main.c      ****     
ARM GAS  C:\Users\MALINA~1\AppData\Local\Temp\cc6rn7Bg.s 			page 21


 194:.\main.c      ****     MotorControl3EN_Write(1);
 911              		.loc 1 194 0
 912 0038 0120     		mov	r0, #1
 913 003a FFF7FEFF 		bl	MotorControl3EN_Write
 195:.\main.c      ****     CyDelay(10);
 914              		.loc 1 195 0
 915 003e 0A20     		mov	r0, #10
 916 0040 FFF7FEFF 		bl	CyDelay
 196:.\main.c      ****     MotorComms_UartPutChar(0);
 917              		.loc 1 196 0
 918 0044 0020     		mov	r0, #0
 919 0046 FFF7FEFF 		bl	MotorComms_SpiUartWriteTxData
 197:.\main.c      ****     MotorControl3EN_Write(0);
 920              		.loc 1 197 0
 921 004a 0020     		mov	r0, #0
 922 004c FFF7FEFF 		bl	MotorControl3EN_Write
 198:.\main.c      ****     
 199:.\main.c      ****     MotorControl4EN_Write(1);
 923              		.loc 1 199 0
 924 0050 0120     		mov	r0, #1
 925 0052 FFF7FEFF 		bl	MotorControl4EN_Write
 200:.\main.c      ****     CyDelay(10);
 926              		.loc 1 200 0
 927 0056 0A20     		mov	r0, #10
 928 0058 FFF7FEFF 		bl	CyDelay
 201:.\main.c      ****     MotorComms_UartPutChar(0);
 929              		.loc 1 201 0
 930 005c 0020     		mov	r0, #0
 931 005e FFF7FEFF 		bl	MotorComms_SpiUartWriteTxData
 202:.\main.c      ****     MotorControl4EN_Write(0);
 932              		.loc 1 202 0
 933 0062 0020     		mov	r0, #0
 934 0064 FFF7FEFF 		bl	MotorControl4EN_Write
 203:.\main.c      ****     
 204:.\main.c      ****     MotorControl5EN_Write(1);
 935              		.loc 1 204 0
 936 0068 0120     		mov	r0, #1
 937 006a FFF7FEFF 		bl	MotorControl5EN_Write
 205:.\main.c      ****     CyDelay(10);
 938              		.loc 1 205 0
 939 006e 0A20     		mov	r0, #10
 940 0070 FFF7FEFF 		bl	CyDelay
 206:.\main.c      ****     MotorComms_UartPutChar(0);
 941              		.loc 1 206 0
 942 0074 0020     		mov	r0, #0
 943 0076 FFF7FEFF 		bl	MotorComms_SpiUartWriteTxData
 207:.\main.c      ****     MotorControl5EN_Write(0);
 944              		.loc 1 207 0
 945 007a 0020     		mov	r0, #0
 946 007c FFF7FEFF 		bl	MotorControl5EN_Write
 208:.\main.c      **** }
 947              		.loc 1 208 0
 948 0080 BD46     		mov	sp, r7
 949              		@ sp needed
 950 0082 80BD     		pop	{r7, pc}
 951              		.cfi_endproc
 952              	.LFE39:
ARM GAS  C:\Users\MALINA~1\AppData\Local\Temp\cc6rn7Bg.s 			page 22


 953              		.size	ReallyDisableEverything, .-ReallyDisableEverything
 954              		.text
 955              	.Letext0:
 956              		.file 2 "Generated_Source\\PSoC4/cytypes.h"
 957              		.section	.debug_info,"",%progbits
 958              	.Ldebug_info0:
 959 0000 67020000 		.4byte	0x267
 960 0004 0400     		.2byte	0x4
 961 0006 00000000 		.4byte	.Ldebug_abbrev0
 962 000a 04       		.byte	0x4
 963 000b 01       		.uleb128 0x1
 964 000c AD010000 		.4byte	.LASF29
 965 0010 01       		.byte	0x1
 966 0011 B5000000 		.4byte	.LASF30
 967 0015 0E000000 		.4byte	.LASF31
 968 0019 00000000 		.4byte	.Ldebug_ranges0+0
 969 001d 00000000 		.4byte	0
 970 0021 00000000 		.4byte	.Ldebug_line0
 971 0025 02       		.uleb128 0x2
 972 0026 01       		.byte	0x1
 973 0027 06       		.byte	0x6
 974 0028 A1010000 		.4byte	.LASF0
 975 002c 02       		.uleb128 0x2
 976 002d 01       		.byte	0x1
 977 002e 08       		.byte	0x8
 978 002f 9E000000 		.4byte	.LASF1
 979 0033 02       		.uleb128 0x2
 980 0034 02       		.byte	0x2
 981 0035 05       		.byte	0x5
 982 0036 7A010000 		.4byte	.LASF2
 983 003a 02       		.uleb128 0x2
 984 003b 02       		.byte	0x2
 985 003c 07       		.byte	0x7
 986 003d D7000000 		.4byte	.LASF3
 987 0041 02       		.uleb128 0x2
 988 0042 04       		.byte	0x4
 989 0043 05       		.byte	0x5
 990 0044 98010000 		.4byte	.LASF4
 991 0048 02       		.uleb128 0x2
 992 0049 04       		.byte	0x4
 993 004a 07       		.byte	0x7
 994 004b C5000000 		.4byte	.LASF5
 995 004f 02       		.uleb128 0x2
 996 0050 08       		.byte	0x8
 997 0051 05       		.byte	0x5
 998 0052 00000000 		.4byte	.LASF6
 999 0056 02       		.uleb128 0x2
 1000 0057 08       		.byte	0x8
 1001 0058 07       		.byte	0x7
 1002 0059 18010000 		.4byte	.LASF7
 1003 005d 03       		.uleb128 0x3
 1004 005e 04       		.byte	0x4
 1005 005f 05       		.byte	0x5
 1006 0060 696E7400 		.ascii	"int\000"
 1007 0064 02       		.uleb128 0x2
 1008 0065 04       		.byte	0x4
 1009 0066 07       		.byte	0x7
ARM GAS  C:\Users\MALINA~1\AppData\Local\Temp\cc6rn7Bg.s 			page 23


 1010 0067 0B010000 		.4byte	.LASF8
 1011 006b 04       		.uleb128 0x4
 1012 006c 84010000 		.4byte	.LASF9
 1013 0070 02       		.byte	0x2
 1014 0071 A1       		.byte	0xa1
 1015 0072 2C000000 		.4byte	0x2c
 1016 0076 04       		.uleb128 0x4
 1017 0077 04010000 		.4byte	.LASF10
 1018 007b 02       		.byte	0x2
 1019 007c A3       		.byte	0xa3
 1020 007d 48000000 		.4byte	0x48
 1021 0081 02       		.uleb128 0x2
 1022 0082 04       		.byte	0x4
 1023 0083 04       		.byte	0x4
 1024 0084 93000000 		.4byte	.LASF11
 1025 0088 02       		.uleb128 0x2
 1026 0089 08       		.byte	0x8
 1027 008a 04       		.byte	0x4
 1028 008b F8000000 		.4byte	.LASF12
 1029 008f 02       		.uleb128 0x2
 1030 0090 01       		.byte	0x1
 1031 0091 08       		.byte	0x8
 1032 0092 6F010000 		.4byte	.LASF13
 1033 0096 05       		.uleb128 0x5
 1034 0097 81000000 		.4byte	.LASF14
 1035 009b 02       		.byte	0x2
 1036 009c 4D01     		.2byte	0x14d
 1037 009e A2000000 		.4byte	0xa2
 1038 00a2 06       		.uleb128 0x6
 1039 00a3 76000000 		.4byte	0x76
 1040 00a7 02       		.uleb128 0x2
 1041 00a8 04       		.byte	0x4
 1042 00a9 07       		.byte	0x7
 1043 00aa 48010000 		.4byte	.LASF15
 1044 00ae 07       		.uleb128 0x7
 1045 00af 04       		.byte	0x4
 1046 00b0 8F000000 		.4byte	0x8f
 1047 00b4 07       		.uleb128 0x7
 1048 00b5 04       		.byte	0x4
 1049 00b6 6B000000 		.4byte	0x6b
 1050 00ba 08       		.uleb128 0x8
 1051 00bb AC000000 		.4byte	.LASF32
 1052 00bf 01       		.byte	0x1
 1053 00c0 0B       		.byte	0xb
 1054 00c1 00000000 		.4byte	.LFB33
 1055 00c5 54000000 		.4byte	.LFE33-.LFB33
 1056 00c9 01       		.uleb128 0x1
 1057 00ca 9C       		.byte	0x9c
 1058 00cb DC000000 		.4byte	0xdc
 1059 00cf 09       		.uleb128 0x9
 1060 00d0 6300     		.ascii	"c\000"
 1061 00d2 01       		.byte	0x1
 1062 00d3 0E       		.byte	0xe
 1063 00d4 6B000000 		.4byte	0x6b
 1064 00d8 02       		.uleb128 0x2
 1065 00d9 91       		.byte	0x91
 1066 00da 77       		.sleb128 -9
ARM GAS  C:\Users\MALINA~1\AppData\Local\Temp\cc6rn7Bg.s 			page 24


 1067 00db 00       		.byte	0
 1068 00dc 0A       		.uleb128 0xa
 1069 00dd FF000000 		.4byte	.LASF33
 1070 00e1 01       		.byte	0x1
 1071 00e2 18       		.byte	0x18
 1072 00e3 5D000000 		.4byte	0x5d
 1073 00e7 00000000 		.4byte	.LFB34
 1074 00eb 90000000 		.4byte	.LFE34-.LFB34
 1075 00ef 01       		.uleb128 0x1
 1076 00f0 9C       		.byte	0x9c
 1077 00f1 0B       		.uleb128 0xb
 1078 00f2 87000000 		.4byte	.LASF22
 1079 00f6 01       		.byte	0x1
 1080 00f7 36       		.byte	0x36
 1081 00f8 00000000 		.4byte	.LFB35
 1082 00fc D0020000 		.4byte	.LFE35-.LFB35
 1083 0100 01       		.uleb128 0x1
 1084 0101 9C       		.byte	0x9c
 1085 0102 7A010000 		.4byte	0x17a
 1086 0106 0C       		.uleb128 0xc
 1087 0107 99000000 		.4byte	.LASF16
 1088 010b 01       		.byte	0x1
 1089 010c 36       		.byte	0x36
 1090 010d B4000000 		.4byte	0xb4
 1091 0111 03       		.uleb128 0x3
 1092 0112 91       		.byte	0x91
 1093 0113 D47D     		.sleb128 -300
 1094 0115 0C       		.uleb128 0xc
 1095 0116 BE000000 		.4byte	.LASF17
 1096 011a 01       		.byte	0x1
 1097 011b 36       		.byte	0x36
 1098 011c 6B000000 		.4byte	0x6b
 1099 0120 03       		.uleb128 0x3
 1100 0121 91       		.byte	0x91
 1101 0122 D37D     		.sleb128 -301
 1102 0124 09       		.uleb128 0x9
 1103 0125 69747200 		.ascii	"itr\000"
 1104 0129 01       		.byte	0x1
 1105 012a 39       		.byte	0x39
 1106 012b AE000000 		.4byte	0xae
 1107 012f 02       		.uleb128 0x2
 1108 0130 91       		.byte	0x91
 1109 0131 5C       		.sleb128 -36
 1110 0132 0D       		.uleb128 0xd
 1111 0133 29020000 		.4byte	.LASF18
 1112 0137 01       		.byte	0x1
 1113 0138 3A       		.byte	0x3a
 1114 0139 AE000000 		.4byte	0xae
 1115 013d 02       		.uleb128 0x2
 1116 013e 91       		.byte	0x91
 1117 013f 6C       		.sleb128 -20
 1118 0140 09       		.uleb128 0x9
 1119 0141 76616C00 		.ascii	"val\000"
 1120 0145 01       		.byte	0x1
 1121 0146 3B       		.byte	0x3b
 1122 0147 AE000000 		.4byte	0xae
 1123 014b 02       		.uleb128 0x2
ARM GAS  C:\Users\MALINA~1\AppData\Local\Temp\cc6rn7Bg.s 			page 25


 1124 014c 91       		.byte	0x91
 1125 014d 68       		.sleb128 -24
 1126 014e 0D       		.uleb128 0xd
 1127 014f 74010000 		.4byte	.LASF19
 1128 0153 01       		.byte	0x1
 1129 0154 3C       		.byte	0x3c
 1130 0155 5D000000 		.4byte	0x5d
 1131 0159 02       		.uleb128 0x2
 1132 015a 91       		.byte	0x91
 1133 015b 64       		.sleb128 -28
 1134 015c 0D       		.uleb128 0xd
 1135 015d 51010000 		.4byte	.LASF20
 1136 0161 01       		.byte	0x1
 1137 0162 3D       		.byte	0x3d
 1138 0163 5D000000 		.4byte	0x5d
 1139 0167 02       		.uleb128 0x2
 1140 0168 91       		.byte	0x91
 1141 0169 60       		.sleb128 -32
 1142 016a 0D       		.uleb128 0xd
 1143 016b F3000000 		.4byte	.LASF21
 1144 016f 01       		.byte	0x1
 1145 0170 3E       		.byte	0x3e
 1146 0171 7A010000 		.4byte	0x17a
 1147 0175 03       		.uleb128 0x3
 1148 0176 91       		.byte	0x91
 1149 0177 DC7D     		.sleb128 -292
 1150 0179 00       		.byte	0
 1151 017a 0E       		.uleb128 0xe
 1152 017b 8F000000 		.4byte	0x8f
 1153 017f 8A010000 		.4byte	0x18a
 1154 0183 0F       		.uleb128 0xf
 1155 0184 A7000000 		.4byte	0xa7
 1156 0188 FE       		.byte	0xfe
 1157 0189 00       		.byte	0
 1158 018a 10       		.uleb128 0x10
 1159 018b 34010000 		.4byte	.LASF24
 1160 018f 01       		.byte	0x1
 1161 0190 7F       		.byte	0x7f
 1162 0191 00000000 		.4byte	.LFB36
 1163 0195 2C000000 		.4byte	.LFE36-.LFB36
 1164 0199 01       		.uleb128 0x1
 1165 019a 9C       		.byte	0x9c
 1166 019b 0B       		.uleb128 0xb
 1167 019c EA000000 		.4byte	.LASF23
 1168 01a0 01       		.byte	0x1
 1169 01a1 89       		.byte	0x89
 1170 01a2 00000000 		.4byte	.LFB37
 1171 01a6 C8000000 		.4byte	.LFE37-.LFB37
 1172 01aa 01       		.uleb128 0x1
 1173 01ab 9C       		.byte	0x9c
 1174 01ac DE010000 		.4byte	0x1de
 1175 01b0 0C       		.uleb128 0xc
 1176 01b1 51010000 		.4byte	.LASF20
 1177 01b5 01       		.byte	0x1
 1178 01b6 89       		.byte	0x89
 1179 01b7 5D000000 		.4byte	0x5d
 1180 01bb 03       		.uleb128 0x3
ARM GAS  C:\Users\MALINA~1\AppData\Local\Temp\cc6rn7Bg.s 			page 26


 1181 01bc 91       		.byte	0x91
 1182 01bd F47D     		.sleb128 -268
 1183 01bf 0C       		.uleb128 0xc
 1184 01c0 74010000 		.4byte	.LASF19
 1185 01c4 01       		.byte	0x1
 1186 01c5 89       		.byte	0x89
 1187 01c6 5D000000 		.4byte	0x5d
 1188 01ca 03       		.uleb128 0x3
 1189 01cb 91       		.byte	0x91
 1190 01cc F07D     		.sleb128 -272
 1191 01ce 0D       		.uleb128 0xd
 1192 01cf F3000000 		.4byte	.LASF21
 1193 01d3 01       		.byte	0x1
 1194 01d4 8B       		.byte	0x8b
 1195 01d5 7A010000 		.4byte	0x17a
 1196 01d9 03       		.uleb128 0x3
 1197 01da 91       		.byte	0x91
 1198 01db F87D     		.sleb128 -264
 1199 01dd 00       		.byte	0
 1200 01de 11       		.uleb128 0x11
 1201 01df 3F010000 		.4byte	.LASF34
 1202 01e3 01       		.byte	0x1
 1203 01e4 AE       		.byte	0xae
 1204 01e5 5D000000 		.4byte	0x5d
 1205 01e9 00000000 		.4byte	.LFB38
 1206 01ed 2C000000 		.4byte	.LFE38-.LFB38
 1207 01f1 01       		.uleb128 0x1
 1208 01f2 9C       		.byte	0x9c
 1209 01f3 06020000 		.4byte	0x206
 1210 01f7 12       		.uleb128 0x12
 1211 01f8 76616C00 		.ascii	"val\000"
 1212 01fc 01       		.byte	0x1
 1213 01fd AE       		.byte	0xae
 1214 01fe 5D000000 		.4byte	0x5d
 1215 0202 02       		.uleb128 0x2
 1216 0203 91       		.byte	0x91
 1217 0204 74       		.sleb128 -12
 1218 0205 00       		.byte	0
 1219 0206 10       		.uleb128 0x10
 1220 0207 57010000 		.4byte	.LASF25
 1221 020b 01       		.byte	0x1
 1222 020c B4       		.byte	0xb4
 1223 020d 00000000 		.4byte	.LFB39
 1224 0211 84000000 		.4byte	.LFE39-.LFB39
 1225 0215 01       		.uleb128 0x1
 1226 0216 9C       		.byte	0x9c
 1227 0217 0E       		.uleb128 0xe
 1228 0218 6B000000 		.4byte	0x6b
 1229 021c 27020000 		.4byte	0x227
 1230 0220 0F       		.uleb128 0xf
 1231 0221 A7000000 		.4byte	0xa7
 1232 0225 7F       		.byte	0x7f
 1233 0226 00       		.byte	0
 1234 0227 13       		.uleb128 0x13
 1235 0228 2F010000 		.4byte	.LASF26
 1236 022c 01       		.byte	0x1
 1237 022d 05       		.byte	0x5
ARM GAS  C:\Users\MALINA~1\AppData\Local\Temp\cc6rn7Bg.s 			page 27


 1238 022e 17020000 		.4byte	0x217
 1239 0232 05       		.uleb128 0x5
 1240 0233 03       		.byte	0x3
 1241 0234 00000000 		.4byte	line
 1242 0238 13       		.uleb128 0x13
 1243 0239 91010000 		.4byte	.LASF27
 1244 023d 01       		.byte	0x1
 1245 023e 06       		.byte	0x6
 1246 023f 6B000000 		.4byte	0x6b
 1247 0243 05       		.uleb128 0x5
 1248 0244 03       		.byte	0x3
 1249 0245 00000000 		.4byte	linesz
 1250 0249 0E       		.uleb128 0xe
 1251 024a 5D000000 		.4byte	0x5d
 1252 024e 59020000 		.4byte	0x259
 1253 0252 0F       		.uleb128 0xf
 1254 0253 A7000000 		.4byte	0xa7
 1255 0257 0B       		.byte	0xb
 1256 0258 00       		.byte	0
 1257 0259 13       		.uleb128 0x13
 1258 025a 8A010000 		.4byte	.LASF28
 1259 025e 01       		.byte	0x1
 1260 025f 07       		.byte	0x7
 1261 0260 49020000 		.4byte	0x249
 1262 0264 05       		.uleb128 0x5
 1263 0265 03       		.byte	0x3
 1264 0266 00000000 		.4byte	motors
 1265 026a 00       		.byte	0
 1266              		.section	.debug_abbrev,"",%progbits
 1267              	.Ldebug_abbrev0:
 1268 0000 01       		.uleb128 0x1
 1269 0001 11       		.uleb128 0x11
 1270 0002 01       		.byte	0x1
 1271 0003 25       		.uleb128 0x25
 1272 0004 0E       		.uleb128 0xe
 1273 0005 13       		.uleb128 0x13
 1274 0006 0B       		.uleb128 0xb
 1275 0007 03       		.uleb128 0x3
 1276 0008 0E       		.uleb128 0xe
 1277 0009 1B       		.uleb128 0x1b
 1278 000a 0E       		.uleb128 0xe
 1279 000b 55       		.uleb128 0x55
 1280 000c 17       		.uleb128 0x17
 1281 000d 11       		.uleb128 0x11
 1282 000e 01       		.uleb128 0x1
 1283 000f 10       		.uleb128 0x10
 1284 0010 17       		.uleb128 0x17
 1285 0011 00       		.byte	0
 1286 0012 00       		.byte	0
 1287 0013 02       		.uleb128 0x2
 1288 0014 24       		.uleb128 0x24
 1289 0015 00       		.byte	0
 1290 0016 0B       		.uleb128 0xb
 1291 0017 0B       		.uleb128 0xb
 1292 0018 3E       		.uleb128 0x3e
 1293 0019 0B       		.uleb128 0xb
 1294 001a 03       		.uleb128 0x3
ARM GAS  C:\Users\MALINA~1\AppData\Local\Temp\cc6rn7Bg.s 			page 28


 1295 001b 0E       		.uleb128 0xe
 1296 001c 00       		.byte	0
 1297 001d 00       		.byte	0
 1298 001e 03       		.uleb128 0x3
 1299 001f 24       		.uleb128 0x24
 1300 0020 00       		.byte	0
 1301 0021 0B       		.uleb128 0xb
 1302 0022 0B       		.uleb128 0xb
 1303 0023 3E       		.uleb128 0x3e
 1304 0024 0B       		.uleb128 0xb
 1305 0025 03       		.uleb128 0x3
 1306 0026 08       		.uleb128 0x8
 1307 0027 00       		.byte	0
 1308 0028 00       		.byte	0
 1309 0029 04       		.uleb128 0x4
 1310 002a 16       		.uleb128 0x16
 1311 002b 00       		.byte	0
 1312 002c 03       		.uleb128 0x3
 1313 002d 0E       		.uleb128 0xe
 1314 002e 3A       		.uleb128 0x3a
 1315 002f 0B       		.uleb128 0xb
 1316 0030 3B       		.uleb128 0x3b
 1317 0031 0B       		.uleb128 0xb
 1318 0032 49       		.uleb128 0x49
 1319 0033 13       		.uleb128 0x13
 1320 0034 00       		.byte	0
 1321 0035 00       		.byte	0
 1322 0036 05       		.uleb128 0x5
 1323 0037 16       		.uleb128 0x16
 1324 0038 00       		.byte	0
 1325 0039 03       		.uleb128 0x3
 1326 003a 0E       		.uleb128 0xe
 1327 003b 3A       		.uleb128 0x3a
 1328 003c 0B       		.uleb128 0xb
 1329 003d 3B       		.uleb128 0x3b
 1330 003e 05       		.uleb128 0x5
 1331 003f 49       		.uleb128 0x49
 1332 0040 13       		.uleb128 0x13
 1333 0041 00       		.byte	0
 1334 0042 00       		.byte	0
 1335 0043 06       		.uleb128 0x6
 1336 0044 35       		.uleb128 0x35
 1337 0045 00       		.byte	0
 1338 0046 49       		.uleb128 0x49
 1339 0047 13       		.uleb128 0x13
 1340 0048 00       		.byte	0
 1341 0049 00       		.byte	0
 1342 004a 07       		.uleb128 0x7
 1343 004b 0F       		.uleb128 0xf
 1344 004c 00       		.byte	0
 1345 004d 0B       		.uleb128 0xb
 1346 004e 0B       		.uleb128 0xb
 1347 004f 49       		.uleb128 0x49
 1348 0050 13       		.uleb128 0x13
 1349 0051 00       		.byte	0
 1350 0052 00       		.byte	0
 1351 0053 08       		.uleb128 0x8
ARM GAS  C:\Users\MALINA~1\AppData\Local\Temp\cc6rn7Bg.s 			page 29


 1352 0054 2E       		.uleb128 0x2e
 1353 0055 01       		.byte	0x1
 1354 0056 3F       		.uleb128 0x3f
 1355 0057 19       		.uleb128 0x19
 1356 0058 03       		.uleb128 0x3
 1357 0059 0E       		.uleb128 0xe
 1358 005a 3A       		.uleb128 0x3a
 1359 005b 0B       		.uleb128 0xb
 1360 005c 3B       		.uleb128 0x3b
 1361 005d 0B       		.uleb128 0xb
 1362 005e 11       		.uleb128 0x11
 1363 005f 01       		.uleb128 0x1
 1364 0060 12       		.uleb128 0x12
 1365 0061 06       		.uleb128 0x6
 1366 0062 40       		.uleb128 0x40
 1367 0063 18       		.uleb128 0x18
 1368 0064 9642     		.uleb128 0x2116
 1369 0066 19       		.uleb128 0x19
 1370 0067 01       		.uleb128 0x1
 1371 0068 13       		.uleb128 0x13
 1372 0069 00       		.byte	0
 1373 006a 00       		.byte	0
 1374 006b 09       		.uleb128 0x9
 1375 006c 34       		.uleb128 0x34
 1376 006d 00       		.byte	0
 1377 006e 03       		.uleb128 0x3
 1378 006f 08       		.uleb128 0x8
 1379 0070 3A       		.uleb128 0x3a
 1380 0071 0B       		.uleb128 0xb
 1381 0072 3B       		.uleb128 0x3b
 1382 0073 0B       		.uleb128 0xb
 1383 0074 49       		.uleb128 0x49
 1384 0075 13       		.uleb128 0x13
 1385 0076 02       		.uleb128 0x2
 1386 0077 18       		.uleb128 0x18
 1387 0078 00       		.byte	0
 1388 0079 00       		.byte	0
 1389 007a 0A       		.uleb128 0xa
 1390 007b 2E       		.uleb128 0x2e
 1391 007c 00       		.byte	0
 1392 007d 3F       		.uleb128 0x3f
 1393 007e 19       		.uleb128 0x19
 1394 007f 03       		.uleb128 0x3
 1395 0080 0E       		.uleb128 0xe
 1396 0081 3A       		.uleb128 0x3a
 1397 0082 0B       		.uleb128 0xb
 1398 0083 3B       		.uleb128 0x3b
 1399 0084 0B       		.uleb128 0xb
 1400 0085 49       		.uleb128 0x49
 1401 0086 13       		.uleb128 0x13
 1402 0087 11       		.uleb128 0x11
 1403 0088 01       		.uleb128 0x1
 1404 0089 12       		.uleb128 0x12
 1405 008a 06       		.uleb128 0x6
 1406 008b 40       		.uleb128 0x40
 1407 008c 18       		.uleb128 0x18
 1408 008d 9642     		.uleb128 0x2116
ARM GAS  C:\Users\MALINA~1\AppData\Local\Temp\cc6rn7Bg.s 			page 30


 1409 008f 19       		.uleb128 0x19
 1410 0090 00       		.byte	0
 1411 0091 00       		.byte	0
 1412 0092 0B       		.uleb128 0xb
 1413 0093 2E       		.uleb128 0x2e
 1414 0094 01       		.byte	0x1
 1415 0095 3F       		.uleb128 0x3f
 1416 0096 19       		.uleb128 0x19
 1417 0097 03       		.uleb128 0x3
 1418 0098 0E       		.uleb128 0xe
 1419 0099 3A       		.uleb128 0x3a
 1420 009a 0B       		.uleb128 0xb
 1421 009b 3B       		.uleb128 0x3b
 1422 009c 0B       		.uleb128 0xb
 1423 009d 27       		.uleb128 0x27
 1424 009e 19       		.uleb128 0x19
 1425 009f 11       		.uleb128 0x11
 1426 00a0 01       		.uleb128 0x1
 1427 00a1 12       		.uleb128 0x12
 1428 00a2 06       		.uleb128 0x6
 1429 00a3 40       		.uleb128 0x40
 1430 00a4 18       		.uleb128 0x18
 1431 00a5 9642     		.uleb128 0x2116
 1432 00a7 19       		.uleb128 0x19
 1433 00a8 01       		.uleb128 0x1
 1434 00a9 13       		.uleb128 0x13
 1435 00aa 00       		.byte	0
 1436 00ab 00       		.byte	0
 1437 00ac 0C       		.uleb128 0xc
 1438 00ad 05       		.uleb128 0x5
 1439 00ae 00       		.byte	0
 1440 00af 03       		.uleb128 0x3
 1441 00b0 0E       		.uleb128 0xe
 1442 00b1 3A       		.uleb128 0x3a
 1443 00b2 0B       		.uleb128 0xb
 1444 00b3 3B       		.uleb128 0x3b
 1445 00b4 0B       		.uleb128 0xb
 1446 00b5 49       		.uleb128 0x49
 1447 00b6 13       		.uleb128 0x13
 1448 00b7 02       		.uleb128 0x2
 1449 00b8 18       		.uleb128 0x18
 1450 00b9 00       		.byte	0
 1451 00ba 00       		.byte	0
 1452 00bb 0D       		.uleb128 0xd
 1453 00bc 34       		.uleb128 0x34
 1454 00bd 00       		.byte	0
 1455 00be 03       		.uleb128 0x3
 1456 00bf 0E       		.uleb128 0xe
 1457 00c0 3A       		.uleb128 0x3a
 1458 00c1 0B       		.uleb128 0xb
 1459 00c2 3B       		.uleb128 0x3b
 1460 00c3 0B       		.uleb128 0xb
 1461 00c4 49       		.uleb128 0x49
 1462 00c5 13       		.uleb128 0x13
 1463 00c6 02       		.uleb128 0x2
 1464 00c7 18       		.uleb128 0x18
 1465 00c8 00       		.byte	0
ARM GAS  C:\Users\MALINA~1\AppData\Local\Temp\cc6rn7Bg.s 			page 31


 1466 00c9 00       		.byte	0
 1467 00ca 0E       		.uleb128 0xe
 1468 00cb 01       		.uleb128 0x1
 1469 00cc 01       		.byte	0x1
 1470 00cd 49       		.uleb128 0x49
 1471 00ce 13       		.uleb128 0x13
 1472 00cf 01       		.uleb128 0x1
 1473 00d0 13       		.uleb128 0x13
 1474 00d1 00       		.byte	0
 1475 00d2 00       		.byte	0
 1476 00d3 0F       		.uleb128 0xf
 1477 00d4 21       		.uleb128 0x21
 1478 00d5 00       		.byte	0
 1479 00d6 49       		.uleb128 0x49
 1480 00d7 13       		.uleb128 0x13
 1481 00d8 2F       		.uleb128 0x2f
 1482 00d9 0B       		.uleb128 0xb
 1483 00da 00       		.byte	0
 1484 00db 00       		.byte	0
 1485 00dc 10       		.uleb128 0x10
 1486 00dd 2E       		.uleb128 0x2e
 1487 00de 00       		.byte	0
 1488 00df 3F       		.uleb128 0x3f
 1489 00e0 19       		.uleb128 0x19
 1490 00e1 03       		.uleb128 0x3
 1491 00e2 0E       		.uleb128 0xe
 1492 00e3 3A       		.uleb128 0x3a
 1493 00e4 0B       		.uleb128 0xb
 1494 00e5 3B       		.uleb128 0x3b
 1495 00e6 0B       		.uleb128 0xb
 1496 00e7 11       		.uleb128 0x11
 1497 00e8 01       		.uleb128 0x1
 1498 00e9 12       		.uleb128 0x12
 1499 00ea 06       		.uleb128 0x6
 1500 00eb 40       		.uleb128 0x40
 1501 00ec 18       		.uleb128 0x18
 1502 00ed 9642     		.uleb128 0x2116
 1503 00ef 19       		.uleb128 0x19
 1504 00f0 00       		.byte	0
 1505 00f1 00       		.byte	0
 1506 00f2 11       		.uleb128 0x11
 1507 00f3 2E       		.uleb128 0x2e
 1508 00f4 01       		.byte	0x1
 1509 00f5 3F       		.uleb128 0x3f
 1510 00f6 19       		.uleb128 0x19
 1511 00f7 03       		.uleb128 0x3
 1512 00f8 0E       		.uleb128 0xe
 1513 00f9 3A       		.uleb128 0x3a
 1514 00fa 0B       		.uleb128 0xb
 1515 00fb 3B       		.uleb128 0x3b
 1516 00fc 0B       		.uleb128 0xb
 1517 00fd 27       		.uleb128 0x27
 1518 00fe 19       		.uleb128 0x19
 1519 00ff 49       		.uleb128 0x49
 1520 0100 13       		.uleb128 0x13
 1521 0101 11       		.uleb128 0x11
 1522 0102 01       		.uleb128 0x1
ARM GAS  C:\Users\MALINA~1\AppData\Local\Temp\cc6rn7Bg.s 			page 32


 1523 0103 12       		.uleb128 0x12
 1524 0104 06       		.uleb128 0x6
 1525 0105 40       		.uleb128 0x40
 1526 0106 18       		.uleb128 0x18
 1527 0107 9742     		.uleb128 0x2117
 1528 0109 19       		.uleb128 0x19
 1529 010a 01       		.uleb128 0x1
 1530 010b 13       		.uleb128 0x13
 1531 010c 00       		.byte	0
 1532 010d 00       		.byte	0
 1533 010e 12       		.uleb128 0x12
 1534 010f 05       		.uleb128 0x5
 1535 0110 00       		.byte	0
 1536 0111 03       		.uleb128 0x3
 1537 0112 08       		.uleb128 0x8
 1538 0113 3A       		.uleb128 0x3a
 1539 0114 0B       		.uleb128 0xb
 1540 0115 3B       		.uleb128 0x3b
 1541 0116 0B       		.uleb128 0xb
 1542 0117 49       		.uleb128 0x49
 1543 0118 13       		.uleb128 0x13
 1544 0119 02       		.uleb128 0x2
 1545 011a 18       		.uleb128 0x18
 1546 011b 00       		.byte	0
 1547 011c 00       		.byte	0
 1548 011d 13       		.uleb128 0x13
 1549 011e 34       		.uleb128 0x34
 1550 011f 00       		.byte	0
 1551 0120 03       		.uleb128 0x3
 1552 0121 0E       		.uleb128 0xe
 1553 0122 3A       		.uleb128 0x3a
 1554 0123 0B       		.uleb128 0xb
 1555 0124 3B       		.uleb128 0x3b
 1556 0125 0B       		.uleb128 0xb
 1557 0126 49       		.uleb128 0x49
 1558 0127 13       		.uleb128 0x13
 1559 0128 3F       		.uleb128 0x3f
 1560 0129 19       		.uleb128 0x19
 1561 012a 02       		.uleb128 0x2
 1562 012b 18       		.uleb128 0x18
 1563 012c 00       		.byte	0
 1564 012d 00       		.byte	0
 1565 012e 00       		.byte	0
 1566              		.section	.debug_aranges,"",%progbits
 1567 0000 4C000000 		.4byte	0x4c
 1568 0004 0200     		.2byte	0x2
 1569 0006 00000000 		.4byte	.Ldebug_info0
 1570 000a 04       		.byte	0x4
 1571 000b 00       		.byte	0
 1572 000c 0000     		.2byte	0
 1573 000e 0000     		.2byte	0
 1574 0010 00000000 		.4byte	.LFB33
 1575 0014 54000000 		.4byte	.LFE33-.LFB33
 1576 0018 00000000 		.4byte	.LFB34
 1577 001c 90000000 		.4byte	.LFE34-.LFB34
 1578 0020 00000000 		.4byte	.LFB35
 1579 0024 D0020000 		.4byte	.LFE35-.LFB35
ARM GAS  C:\Users\MALINA~1\AppData\Local\Temp\cc6rn7Bg.s 			page 33


 1580 0028 00000000 		.4byte	.LFB36
 1581 002c 2C000000 		.4byte	.LFE36-.LFB36
 1582 0030 00000000 		.4byte	.LFB37
 1583 0034 C8000000 		.4byte	.LFE37-.LFB37
 1584 0038 00000000 		.4byte	.LFB38
 1585 003c 2C000000 		.4byte	.LFE38-.LFB38
 1586 0040 00000000 		.4byte	.LFB39
 1587 0044 84000000 		.4byte	.LFE39-.LFB39
 1588 0048 00000000 		.4byte	0
 1589 004c 00000000 		.4byte	0
 1590              		.section	.debug_ranges,"",%progbits
 1591              	.Ldebug_ranges0:
 1592 0000 00000000 		.4byte	.LFB33
 1593 0004 54000000 		.4byte	.LFE33
 1594 0008 00000000 		.4byte	.LFB34
 1595 000c 90000000 		.4byte	.LFE34
 1596 0010 00000000 		.4byte	.LFB35
 1597 0014 D0020000 		.4byte	.LFE35
 1598 0018 00000000 		.4byte	.LFB36
 1599 001c 2C000000 		.4byte	.LFE36
 1600 0020 00000000 		.4byte	.LFB37
 1601 0024 C8000000 		.4byte	.LFE37
 1602 0028 00000000 		.4byte	.LFB38
 1603 002c 2C000000 		.4byte	.LFE38
 1604 0030 00000000 		.4byte	.LFB39
 1605 0034 84000000 		.4byte	.LFE39
 1606 0038 00000000 		.4byte	0
 1607 003c 00000000 		.4byte	0
 1608              		.section	.debug_line,"",%progbits
 1609              	.Ldebug_line0:
 1610 0000 65010000 		.section	.debug_str,"MS",%progbits,1
 1610      02004300 
 1610      00000201 
 1610      FB0E0D00 
 1610      01010101 
 1611              	.LASF6:
 1612 0000 6C6F6E67 		.ascii	"long long int\000"
 1612      206C6F6E 
 1612      6720696E 
 1612      7400
 1613              	.LASF31:
 1614 000e 433A5C55 		.ascii	"C:\\Users\\malinaT430s\\Documents\\NASA\\wpi_sample"
 1614      73657273 
 1614      5C6D616C 
 1614      696E6154 
 1614      34333073 
 1615 003c 5F726574 		.ascii	"_return_challenge_2015\\RockRaidersPSOCCode\\RockRa"
 1615      75726E5F 
 1615      6368616C 
 1615      6C656E67 
 1615      655F3230 
 1616 006d 69646572 		.ascii	"idersPSOCCode.cydsn\000"
 1616      7350534F 
 1616      43436F64 
 1616      652E6379 
 1616      64736E00 
 1617              	.LASF14:
ARM GAS  C:\Users\MALINA~1\AppData\Local\Temp\cc6rn7Bg.s 			page 34


 1618 0081 72656733 		.ascii	"reg32\000"
 1618      3200
 1619              	.LASF22:
 1620 0087 70617273 		.ascii	"parseSerial\000"
 1620      65536572 
 1620      69616C00 
 1621              	.LASF11:
 1622 0093 666C6F61 		.ascii	"float\000"
 1622      7400
 1623              	.LASF16:
 1624 0099 64617461 		.ascii	"data\000"
 1624      00
 1625              	.LASF1:
 1626 009e 756E7369 		.ascii	"unsigned char\000"
 1626      676E6564 
 1626      20636861 
 1626      7200
 1627              	.LASF32:
 1628 00ac 53657269 		.ascii	"SerialCB\000"
 1628      616C4342 
 1628      00
 1629              	.LASF30:
 1630 00b5 2E5C6D61 		.ascii	".\\main.c\000"
 1630      696E2E63 
 1630      00
 1631              	.LASF17:
 1632 00be 64617461 		.ascii	"datasz\000"
 1632      737A00
 1633              	.LASF5:
 1634 00c5 6C6F6E67 		.ascii	"long unsigned int\000"
 1634      20756E73 
 1634      69676E65 
 1634      6420696E 
 1634      7400
 1635              	.LASF3:
 1636 00d7 73686F72 		.ascii	"short unsigned int\000"
 1636      7420756E 
 1636      7369676E 
 1636      65642069 
 1636      6E7400
 1637              	.LASF23:
 1638 00ea 5365744D 		.ascii	"SetMotor\000"
 1638      6F746F72 
 1638      00
 1639              	.LASF21:
 1640 00f3 62756666 		.ascii	"buff\000"
 1640      00
 1641              	.LASF12:
 1642 00f8 646F7562 		.ascii	"double\000"
 1642      6C6500
 1643              	.LASF33:
 1644 00ff 6D61696E 		.ascii	"main\000"
 1644      00
 1645              	.LASF10:
 1646 0104 75696E74 		.ascii	"uint32\000"
 1646      333200
 1647              	.LASF8:
ARM GAS  C:\Users\MALINA~1\AppData\Local\Temp\cc6rn7Bg.s 			page 35


 1648 010b 756E7369 		.ascii	"unsigned int\000"
 1648      676E6564 
 1648      20696E74 
 1648      00
 1649              	.LASF7:
 1650 0118 6C6F6E67 		.ascii	"long long unsigned int\000"
 1650      206C6F6E 
 1650      6720756E 
 1650      7369676E 
 1650      65642069 
 1651              	.LASF26:
 1652 012f 6C696E65 		.ascii	"line\000"
 1652      00
 1653              	.LASF24:
 1654 0134 44697361 		.ascii	"DisableAll\000"
 1654      626C6541 
 1654      6C6C00
 1655              	.LASF34:
 1656 013f 5363616C 		.ascii	"ScaleVal\000"
 1656      6556616C 
 1656      00
 1657              	.LASF15:
 1658 0148 73697A65 		.ascii	"sizetype\000"
 1658      74797065 
 1658      00
 1659              	.LASF20:
 1660 0151 6D6F746F 		.ascii	"motor\000"
 1660      7200
 1661              	.LASF25:
 1662 0157 5265616C 		.ascii	"ReallyDisableEverything\000"
 1662      6C794469 
 1662      7361626C 
 1662      65457665 
 1662      72797468 
 1663              	.LASF13:
 1664 016f 63686172 		.ascii	"char\000"
 1664      00
 1665              	.LASF19:
 1666 0174 76616C75 		.ascii	"value\000"
 1666      6500
 1667              	.LASF2:
 1668 017a 73686F72 		.ascii	"short int\000"
 1668      7420696E 
 1668      7400
 1669              	.LASF9:
 1670 0184 75696E74 		.ascii	"uint8\000"
 1670      3800
 1671              	.LASF28:
 1672 018a 6D6F746F 		.ascii	"motors\000"
 1672      727300
 1673              	.LASF27:
 1674 0191 6C696E65 		.ascii	"linesz\000"
 1674      737A00
 1675              	.LASF4:
 1676 0198 6C6F6E67 		.ascii	"long int\000"
 1676      20696E74 
 1676      00
ARM GAS  C:\Users\MALINA~1\AppData\Local\Temp\cc6rn7Bg.s 			page 36


 1677              	.LASF0:
 1678 01a1 7369676E 		.ascii	"signed char\000"
 1678      65642063 
 1678      68617200 
 1679              	.LASF29:
 1680 01ad 474E5520 		.ascii	"GNU C 4.8.4 20140526 (release) [ARM/embedded-4_8-br"
 1680      4320342E 
 1680      382E3420 
 1680      32303134 
 1680      30353236 
 1681 01e0 616E6368 		.ascii	"anch revision 211358] -mcpu=cortex-m0 -mthumb -g -O"
 1681      20726576 
 1681      6973696F 
 1681      6E203231 
 1681      31333538 
 1682 0213 30202D66 		.ascii	"0 -ffunction-sections\000"
 1682      66756E63 
 1682      74696F6E 
 1682      2D736563 
 1682      74696F6E 
 1683              	.LASF18:
 1684 0229 6E616D65 		.ascii	"name\000"
 1684      00
 1685              		.ident	"GCC: (GNU Tools for ARM Embedded Processors) 4.8.4 20140526 (release) [ARM/embedded-4_8-br
